target datalayout = "e-m:e-p270:32:32-p271:32:32-p272:64:64-i64:64-i128:128-f80:128-n8:16:32:64-S128"
target triple = "x86_64-pc-linux-gnu"

@hf_infiniband_smp_data = internal global i32 0, align 4
@hf_infiniband_LinearForwardingTable_Port = internal global i32 0, align 4
@ett_linearforwardingtable = internal global i32 0, align 4
@.str.1230 = private unnamed_addr constant [3 x i8] c"%s\00", align 1
@.str.1398 = private unnamed_addr constant [5 x i8] c"(%u)\00", align 1
@.str.1480 = private unnamed_addr constant [22 x i8] c"LinearForwardingTable\00", align 1

; Function Attrs: null_pointer_is_valid sspstrong uwtable
define internal void @parse_LinearForwardingTable(ptr noundef %0, ptr noundef %1, ptr noundef %2) #0 {
  %4 = alloca ptr, align 8
  %5 = alloca ptr, align 8
  %6 = alloca ptr, align 8
  %7 = alloca i32, align 4
  %8 = alloca i32, align 4
  %9 = alloca ptr, align 8
  %10 = alloca ptr, align 8
  %11 = alloca ptr, align 8
  %12 = alloca i32, align 4
  store ptr %0, ptr %4, align 8
  store ptr %1, ptr %5, align 8
  store ptr %2, ptr %6, align 8
  call void @llvm.lifetime.start.p0(i64 4, ptr %7) #18
  call void @llvm.lifetime.start.p0(i64 4, ptr %8) #18
  %13 = load ptr, ptr %6, align 8
  %14 = load i32, ptr %13, align 4
  store i32 %14, ptr %8, align 4
  call void @llvm.lifetime.start.p0(i64 8, ptr %9) #18
  call void @llvm.lifetime.start.p0(i64 8, ptr %10) #18
  call void @llvm.lifetime.start.p0(i64 8, ptr %11) #18
  %15 = load ptr, ptr %4, align 8
  %16 = icmp ne ptr %15, null
  br i1 %16, label %18, label %17

17:                                               ; preds = %3
  store i32 1, ptr %12, align 4
  br label %45

18:                                               ; preds = %3
  %19 = load ptr, ptr %4, align 8
  %20 = load i32, ptr @hf_infiniband_smp_data, align 4
  %21 = load ptr, ptr %5, align 8
  %22 = load i32, ptr %8, align 4
  %23 = call ptr @proto_tree_add_item(ptr noundef %19, i32 noundef %20, ptr noundef %21, i32 noundef %22, i32 noundef 64, i32 noundef 0)
  store ptr %23, ptr %9, align 8
  %24 = load ptr, ptr %9, align 8
  call void (ptr, ptr, ...) @proto_item_set_text(ptr noundef %24, ptr noundef @.str.1230, ptr noundef @.str.1480)
  %25 = load ptr, ptr %9, align 8
  %26 = load i32, ptr @ett_linearforwardingtable, align 4
  %27 = call ptr @proto_item_add_subtree(ptr noundef %25, i32 noundef %26)
  store ptr %27, ptr %10, align 8
  store i32 0, ptr %7, align 4
  br label %28

28:                                               ; preds = %41, %18
  %29 = load i32, ptr %7, align 4
  %30 = icmp slt i32 %29, 64
  br i1 %30, label %31, label %44

31:                                               ; preds = %28
  %32 = load ptr, ptr %10, align 8
  %33 = load i32, ptr @hf_infiniband_LinearForwardingTable_Port, align 4
  %34 = load ptr, ptr %5, align 8
  %35 = load i32, ptr %8, align 4
  %36 = call ptr @proto_tree_add_item(ptr noundef %32, i32 noundef %33, ptr noundef %34, i32 noundef %35, i32 noundef 1, i32 noundef 0)
  store ptr %36, ptr %11, align 8
  %37 = load i32, ptr %8, align 4
  %38 = add i32 %37, 1
  store i32 %38, ptr %8, align 4
  %39 = load ptr, ptr %11, align 8
  %40 = load i32, ptr %7, align 4
  call void (ptr, ptr, ...) @proto_item_append_text(ptr noundef %39, ptr noundef @.str.1398, i32 noundef %40)
  br label %41

41:                                               ; preds = %31
  %42 = load i32, ptr %7, align 4
  %43 = add i32 %42, 1
  store i32 %43, ptr %7, align 4
  br label %28, !llvm.loop !14

44:                                               ; preds = %28
  store i32 0, ptr %12, align 4
  br label %45

45:                                               ; preds = %44, %17
  call void @llvm.lifetime.end.p0(i64 8, ptr %11) #18
  call void @llvm.lifetime.end.p0(i64 8, ptr %10) #18
  call void @llvm.lifetime.end.p0(i64 8, ptr %9) #18
  call void @llvm.lifetime.end.p0(i64 4, ptr %8) #18
  call void @llvm.lifetime.end.p0(i64 4, ptr %7) #18
  %46 = load i32, ptr %12, align 4
  switch i32 %46, label %48 [
    i32 0, label %47
    i32 1, label %47
  ]

47:                                               ; preds = %45, %45
  ret void

48:                                               ; preds = %45
  unreachable
}